target datalayout = "e-m:e-p270:32:32-p271:32:32-p272:64:64-i64:64-i128:128-f80:128-n8:16:32:64-S128"
target triple = "x86_64-pc-linux-gnu"

%struct._lv_textarea_t = type { %struct._lv_obj_t, ptr, ptr, ptr, ptr, ptr, i32, i32, %struct.anon, i32, i32, i8 }
%struct._lv_obj_t = type { ptr, ptr, ptr, ptr, ptr, %struct.lv_area_t, i32, i16, i16 }
%struct.lv_area_t = type { i32, i32, i32, i32 }
%struct.anon = type { i32, i32, %struct.lv_area_t, i32, i8 }
%struct.lv_point_t = type { i32, i32 }
%union.lv_style_value_t = type { ptr }

@lv_text_get_encoded_length = external constant ptr, align 8

; Function Attrs: inlinehint nounwind uwtable
define internal ptr @lv_obj_get_style_text_font(ptr noundef %0, i32 noundef %1) #4 {
  %3 = alloca ptr, align 8
  %4 = alloca i32, align 4
  %5 = alloca %union.lv_style_value_t, align 8
  store ptr %0, ptr %3, align 8, !tbaa !8
  store i32 %1, ptr %4, align 4, !tbaa !32
  call void @llvm.lifetime.start.p0(i64 8, ptr %5) #6
  %6 = load ptr, ptr %3, align 8, !tbaa !8
  %7 = load i32, ptr %4, align 4, !tbaa !32
  %8 = call ptr @lv_obj_get_style_prop(ptr noundef %6, i32 noundef %7, i8 noundef zeroext 90)
  %9 = getelementptr inbounds nuw %union.lv_style_value_t, ptr %5, i32 0, i32 0
  store ptr %8, ptr %9, align 8
  %10 = load ptr, ptr %5, align 8, !tbaa !35
  call void @llvm.lifetime.end.p0(i64 8, ptr %5) #6
  ret ptr %10
}

; Function Attrs: nounwind uwtable
define void @lv_textarea_set_cursor_pos(ptr noundef %0, i32 noundef %1) #0 {
  %3 = alloca ptr, align 8
  %4 = alloca i32, align 4
  %5 = alloca ptr, align 8
  %6 = alloca i32, align 4
  %7 = alloca i32, align 4
  %8 = alloca %struct.lv_point_t, align 4
  %9 = alloca ptr, align 8
  %10 = alloca i32, align 4
  %11 = alloca i32, align 4
  %12 = alloca i32, align 4
  store ptr %0, ptr %3, align 8, !tbaa !8
  store i32 %1, ptr %4, align 4, !tbaa !32
  br label %13

13:                                               ; preds = %2
  %14 = load ptr, ptr %3, align 8, !tbaa !8
  %15 = icmp ne ptr %14, null
  br i1 %15, label %20, label %16

16:                                               ; preds = %13
  br label %17

17:                                               ; preds = %16
  br label %18

18:                                               ; preds = %17
  br label %19

19:                                               ; preds = %18, %19
  br label %19

20:                                               ; preds = %13
  br label %21

21:                                               ; preds = %20
  call void @llvm.lifetime.start.p0(i64 8, ptr %5) #6
  %22 = load ptr, ptr %3, align 8, !tbaa !8
  store ptr %22, ptr %5, align 8, !tbaa !10
  %23 = load ptr, ptr %5, align 8, !tbaa !10
  %24 = getelementptr inbounds nuw %struct._lv_textarea_t, ptr %23, i32 0, i32 8
  %25 = getelementptr inbounds nuw %struct.anon, ptr %24, i32 0, i32 1
  %26 = load i32, ptr %25, align 4, !tbaa !26
  %27 = load i32, ptr %4, align 4, !tbaa !32
  %28 = icmp eq i32 %26, %27
  br i1 %28, label %29, label %30

29:                                               ; preds = %21
  store i32 1, ptr %6, align 4
  br label %133

30:                                               ; preds = %21
  call void @llvm.lifetime.start.p0(i64 4, ptr %7) #6
  %31 = load ptr, ptr @lv_text_get_encoded_length, align 8, !tbaa !34
  %32 = load ptr, ptr %5, align 8, !tbaa !10
  %33 = getelementptr inbounds nuw %struct._lv_textarea_t, ptr %32, i32 0, i32 1
  %34 = load ptr, ptr %33, align 8, !tbaa !28
  %35 = call ptr @lv_label_get_text(ptr noundef %34)
  %36 = call i32 %31(ptr noundef %35)
  store i32 %36, ptr %7, align 4, !tbaa !32
  %37 = load i32, ptr %4, align 4, !tbaa !32
  %38 = icmp slt i32 %37, 0
  br i1 %38, label %39, label %43

39:                                               ; preds = %30
  %40 = load i32, ptr %7, align 4, !tbaa !32
  %41 = load i32, ptr %4, align 4, !tbaa !32
  %42 = add i32 %40, %41
  store i32 %42, ptr %4, align 4, !tbaa !32
  br label %43

43:                                               ; preds = %39, %30
  %44 = load i32, ptr %4, align 4, !tbaa !32
  %45 = load i32, ptr %7, align 4, !tbaa !32
  %46 = icmp sgt i32 %44, %45
  br i1 %46, label %50, label %47

47:                                               ; preds = %43
  %48 = load i32, ptr %4, align 4, !tbaa !32
  %49 = icmp eq i32 %48, 32767
  br i1 %49, label %50, label %52

50:                                               ; preds = %47, %43
  %51 = load i32, ptr %7, align 4, !tbaa !32
  store i32 %51, ptr %4, align 4, !tbaa !32
  br label %52

52:                                               ; preds = %50, %47
  %53 = load i32, ptr %4, align 4, !tbaa !32
  %54 = load ptr, ptr %5, align 8, !tbaa !10
  %55 = getelementptr inbounds nuw %struct._lv_textarea_t, ptr %54, i32 0, i32 8
  %56 = getelementptr inbounds nuw %struct.anon, ptr %55, i32 0, i32 1
  store i32 %53, ptr %56, align 4, !tbaa !26
  %57 = load ptr, ptr %3, align 8, !tbaa !8
  call void @lv_obj_update_layout(ptr noundef %57)
  call void @llvm.lifetime.start.p0(i64 8, ptr %8) #6
  call void @llvm.lifetime.start.p0(i64 8, ptr %9) #6
  %58 = load ptr, ptr %3, align 8, !tbaa !8
  %59 = call ptr @lv_obj_get_style_text_font(ptr noundef %58, i32 noundef 0)
  store ptr %59, ptr %9, align 8, !tbaa !41
  %60 = load ptr, ptr %5, align 8, !tbaa !10
  %61 = getelementptr inbounds nuw %struct._lv_textarea_t, ptr %60, i32 0, i32 1
  %62 = load ptr, ptr %61, align 8, !tbaa !28
  %63 = load i32, ptr %4, align 4, !tbaa !32
  call void @lv_label_get_letter_pos(ptr noundef %62, i32 noundef %63, ptr noundef %8)
  call void @llvm.lifetime.start.p0(i64 4, ptr %10) #6
  %64 = load ptr, ptr %9, align 8, !tbaa !41
  %65 = call i32 @lv_font_get_line_height(ptr noundef %64)
  store i32 %65, ptr %10, align 4, !tbaa !32
  %66 = getelementptr inbounds nuw %struct.lv_point_t, ptr %8, i32 0, i32 1
  %67 = load i32, ptr %66, align 4, !tbaa !43
  %68 = load ptr, ptr %3, align 8, !tbaa !8
  %69 = call i32 @lv_obj_get_scroll_top(ptr noundef %68)
  %70 = icmp slt i32 %67, %69
  br i1 %70, label %71, label %75

71:                                               ; preds = %52
  %72 = load ptr, ptr %3, align 8, !tbaa !8
  %73 = getelementptr inbounds nuw %struct.lv_point_t, ptr %8, i32 0, i32 1
  %74 = load i32, ptr %73, align 4, !tbaa !43
  call void @lv_obj_scroll_to_y(ptr noundef %72, i32 noundef %74, i1 noundef zeroext true)
  br label %75

75:                                               ; preds = %71, %52
  call void @llvm.lifetime.start.p0(i64 4, ptr %11) #6
  %76 = load ptr, ptr %3, align 8, !tbaa !8
  %77 = call i32 @lv_obj_get_content_height(ptr noundef %76)
  store i32 %77, ptr %11, align 4, !tbaa !32
  %78 = getelementptr inbounds nuw %struct.lv_point_t, ptr %8, i32 0, i32 1
  %79 = load i32, ptr %78, align 4, !tbaa !43
  %80 = load i32, ptr %10, align 4, !tbaa !32
  %81 = add nsw i32 %79, %80
  %82 = load ptr, ptr %3, align 8, !tbaa !8
  %83 = call i32 @lv_obj_get_scroll_top(ptr noundef %82)
  %84 = sub nsw i32 %81, %83
  %85 = load i32, ptr %11, align 4, !tbaa !32
  %86 = icmp sgt i32 %84, %85
  br i1 %86, label %87, label %95

87:                                               ; preds = %75
  %88 = load ptr, ptr %3, align 8, !tbaa !8
  %89 = getelementptr inbounds nuw %struct.lv_point_t, ptr %8, i32 0, i32 1
  %90 = load i32, ptr %89, align 4, !tbaa !43
  %91 = load i32, ptr %11, align 4, !tbaa !32
  %92 = sub nsw i32 %90, %91
  %93 = load i32, ptr %10, align 4, !tbaa !32
  %94 = add nsw i32 %92, %93
  call void @lv_obj_scroll_to_y(ptr noundef %88, i32 noundef %94, i1 noundef zeroext true)
  br label %95

95:                                               ; preds = %87, %75
  %96 = getelementptr inbounds nuw %struct.lv_point_t, ptr %8, i32 0, i32 0
  %97 = load i32, ptr %96, align 4, !tbaa !45
  %98 = load ptr, ptr %3, align 8, !tbaa !8
  %99 = call i32 @lv_obj_get_scroll_left(ptr noundef %98)
  %100 = icmp slt i32 %97, %99
  br i1 %100, label %101, label %105

101:                                              ; preds = %95
  %102 = load ptr, ptr %3, align 8, !tbaa !8
  %103 = getelementptr inbounds nuw %struct.lv_point_t, ptr %8, i32 0, i32 0
  %104 = load i32, ptr %103, align 4, !tbaa !45
  call void @lv_obj_scroll_to_x(ptr noundef %102, i32 noundef %104, i1 noundef zeroext true)
  br label %105

105:                                              ; preds = %101, %95
  call void @llvm.lifetime.start.p0(i64 4, ptr %12) #6
  %106 = load ptr, ptr %3, align 8, !tbaa !8
  %107 = call i32 @lv_obj_get_content_width(ptr noundef %106)
  store i32 %107, ptr %12, align 4, !tbaa !32
  %108 = getelementptr inbounds nuw %struct.lv_point_t, ptr %8, i32 0, i32 0
  %109 = load i32, ptr %108, align 4, !tbaa !45
  %110 = load i32, ptr %10, align 4, !tbaa !32
  %111 = add nsw i32 %109, %110
  %112 = load ptr, ptr %3, align 8, !tbaa !8
  %113 = call i32 @lv_obj_get_scroll_left(ptr noundef %112)
  %114 = sub nsw i32 %111, %113
  %115 = load i32, ptr %12, align 4, !tbaa !32
  %116 = icmp sgt i32 %114, %115
  br i1 %116, label %117, label %125

117:                                              ; preds = %105
  %118 = load ptr, ptr %3, align 8, !tbaa !8
  %119 = getelementptr inbounds nuw %struct.lv_point_t, ptr %8, i32 0, i32 0
  %120 = load i32, ptr %119, align 4, !tbaa !45
  %121 = load i32, ptr %12, align 4, !tbaa !32
  %122 = sub nsw i32 %120, %121
  %123 = load i32, ptr %10, align 4, !tbaa !32
  %124 = add nsw i32 %122, %123
  call void @lv_obj_scroll_to_x(ptr noundef %118, i32 noundef %124, i1 noundef zeroext true)
  br label %125

125:                                              ; preds = %117, %105
  %126 = getelementptr inbounds nuw %struct.lv_point_t, ptr %8, i32 0, i32 0
  %127 = load i32, ptr %126, align 4, !tbaa !45
  %128 = load ptr, ptr %5, align 8, !tbaa !10
  %129 = getelementptr inbounds nuw %struct._lv_textarea_t, ptr %128, i32 0, i32 8
  %130 = getelementptr inbounds nuw %struct.anon, ptr %129, i32 0, i32 0
  store i32 %127, ptr %130, align 8, !tbaa !27
  %131 = load ptr, ptr %3, align 8, !tbaa !8
  call void @start_cursor_blink(ptr noundef %131)
  %132 = load ptr, ptr %3, align 8, !tbaa !8
  call void @refr_cursor_area(ptr noundef %132)
  call void @llvm.lifetime.end.p0(i64 4, ptr %12) #6
  call void @llvm.lifetime.end.p0(i64 4, ptr %11) #6
  call void @llvm.lifetime.end.p0(i64 4, ptr %10) #6
  call void @llvm.lifetime.end.p0(i64 8, ptr %9) #6
  call void @llvm.lifetime.end.p0(i64 8, ptr %8) #6
  call void @llvm.lifetime.end.p0(i64 4, ptr %7) #6
  store i32 0, ptr %6, align 4
  br label %133

133:                                              ; preds = %125, %29
  call void @llvm.lifetime.end.p0(i64 8, ptr %5) #6
  %134 = load i32, ptr %6, align 4
  switch i32 %134, label %136 [
    i32 0, label %135
    i32 1, label %135
  ]

135:                                              ; preds = %133, %133
  ret void

136:                                              ; preds = %133
  unreachable
}