; Function Attrs: nounwind uwtable
define void @lv_textarea_set_cursor_pos(ptr noundef %0, i32 noundef %1) local_unnamed_addr #0 {
  %3 = alloca %struct.lv_point_t, align 4
  %.not = icmp eq ptr %0, null
  br i1 %.not, label %.preheader, label %4

.preheader:                                       ; preds = %2, %.preheader
  br label %.preheader

4:                                                ; preds = %2
  %5 = getelementptr inbounds nuw i8, ptr %0, i64 112
  %6 = getelementptr inbounds nuw i8, ptr %0, i64 116
  %7 = load i32, ptr %6, align 4, !tbaa !20
  %8 = icmp eq i32 %7, %1
  br i1 %8, label %58, label %9

9:                                                ; preds = %4
  %10 = load ptr, ptr @lv_text_get_encoded_length, align 8, !tbaa !57
  %11 = getelementptr inbounds nuw i8, ptr %0, i64 64
  %12 = load ptr, ptr %11, align 8, !tbaa !22
  %13 = tail call ptr @lv_label_get_text(ptr noundef %12) #10
  %14 = tail call i32 %10(ptr noundef %13) #10
  %15 = icmp slt i32 %1, 0
  %16 = select i1 %15, i32 %14, i32 0
  %spec.select = add i32 %16, %1
  %17 = icmp eq i32 %spec.select, 32767
  %18 = tail call i32 @llvm.smin.i32(i32 %spec.select, i32 %14)
  %.1 = select i1 %17, i32 %14, i32 %18
  store i32 %.1, ptr %6, align 4, !tbaa !20
  tail call void @lv_obj_update_layout(ptr noundef nonnull %0) #10
  call void @llvm.lifetime.start.p0(i64 8, ptr nonnull %3) #10
  %19 = tail call ptr @lv_obj_get_style_prop(ptr noundef nonnull %0, i32 noundef 0, i8 noundef zeroext 90) #10
  %20 = load ptr, ptr %11, align 8, !tbaa !22
  call void @lv_label_get_letter_pos(ptr noundef %20, i32 noundef %.1, ptr noundef nonnull %3) #10
  %21 = call i32 @lv_font_get_line_height(ptr noundef %19) #10
  %22 = getelementptr inbounds nuw i8, ptr %3, i64 4
  %23 = load i32, ptr %22, align 4, !tbaa !31
  %24 = call i32 @lv_obj_get_scroll_top(ptr noundef nonnull %0) #10
  %25 = icmp slt i32 %23, %24
  br i1 %25, label %26, label %28

26:                                               ; preds = %9
  %27 = load i32, ptr %22, align 4, !tbaa !31
  call void @lv_obj_scroll_to_y(ptr noundef nonnull %0, i32 noundef %27, i1 noundef zeroext true) #10
  br label %28

28:                                               ; preds = %26, %9
  %29 = call i32 @lv_obj_get_content_height(ptr noundef nonnull %0) #10
  %30 = load i32, ptr %22, align 4, !tbaa !31
  %31 = add nsw i32 %30, %21
  %32 = call i32 @lv_obj_get_scroll_top(ptr noundef nonnull %0) #10
  %33 = sub i32 %31, %32
  %34 = icmp sgt i32 %33, %29
  br i1 %34, label %35, label %39

35:                                               ; preds = %28
  %36 = load i32, ptr %22, align 4, !tbaa !31
  %37 = sub i32 %21, %29
  %38 = add i32 %37, %36
  call void @lv_obj_scroll_to_y(ptr noundef nonnull %0, i32 noundef %38, i1 noundef zeroext true) #10
  br label %39

39:                                               ; preds = %35, %28
  %40 = load i32, ptr %3, align 4, !tbaa !27
  %41 = call i32 @lv_obj_get_scroll_left(ptr noundef nonnull %0) #10
  %42 = icmp slt i32 %40, %41
  br i1 %42, label %43, label %45

43:                                               ; preds = %39
  %44 = load i32, ptr %3, align 4, !tbaa !27
  call void @lv_obj_scroll_to_x(ptr noundef nonnull %0, i32 noundef %44, i1 noundef zeroext true) #10
  br label %45

45:                                               ; preds = %43, %39
  %46 = call i32 @lv_obj_get_content_width(ptr noundef nonnull %0) #10
  %47 = load i32, ptr %3, align 4, !tbaa !27
  %48 = add nsw i32 %47, %21
  %49 = call i32 @lv_obj_get_scroll_left(ptr noundef nonnull %0) #10
  %50 = sub i32 %48, %49
  %51 = icmp sgt i32 %50, %46
  br i1 %51, label %52, label %56

52:                                               ; preds = %45
  %53 = load i32, ptr %3, align 4, !tbaa !27
  %54 = sub i32 %21, %46
  %55 = add i32 %54, %53
  call void @lv_obj_scroll_to_x(ptr noundef nonnull %0, i32 noundef %55, i1 noundef zeroext true) #10
  br label %56

56:                                               ; preds = %52, %45
  %57 = load i32, ptr %3, align 4, !tbaa !27
  store i32 %57, ptr %5, align 8, !tbaa !21
  call fastcc void @start_cursor_blink(ptr noundef nonnull %0)
  call fastcc void @refr_cursor_area(ptr noundef nonnull %0)
  call void @llvm.lifetime.end.p0(i64 8, ptr nonnull %3) #10
  br label %58

58:                                               ; preds = %4, %56
  ret void
}